target datalayout = "e-m:e-p270:32:32-p271:32:32-p272:64:64-i64:64-i128:128-f80:128-n8:16:32:64-S128"
target triple = "x86_64-pc-linux-gnu"

$_ZNSt3__120__throw_length_errorB8ne210000EPKc = comdat any

$_ZNSt3__120__throw_out_of_rangeB8ne210000EPKc = comdat any

$_ZNSt12length_errorC2B8ne210000EPKc = comdat any

$_ZNSt12out_of_rangeC2B8ne210000EPKc = comdat any

@.str = private unnamed_addr constant [7 x i8] c"vector\00", align 1
@_ZTISt12length_error = external constant ptr
@_ZTVSt12length_error = available_externally unnamed_addr constant { [5 x ptr] } { [5 x ptr] [ptr null, ptr @_ZTISt12length_error, ptr @_ZNSt12length_errorD1Ev, ptr @_ZNSt12length_errorD0Ev, ptr @_ZNKSt11logic_error4whatEv] }, align 8
@_ZTISt12out_of_range = external constant ptr
@_ZTVSt12out_of_range = available_externally unnamed_addr constant { [5 x ptr] } { [5 x ptr] [ptr null, ptr @_ZTISt12out_of_range, ptr @_ZNSt12out_of_rangeD1Ev, ptr @_ZNSt12out_of_rangeD0Ev, ptr @_ZNKSt11logic_error4whatEv] }, align 8

; Function Attrs: mustprogress noreturn uwtable
define dso_local void @_ZNKSt3__120__vector_base_commonILb1EE20__throw_length_errorEv(ptr noundef nonnull align 1 dereferenceable(1) %0) #0 align 2 {
  %2 = alloca ptr, align 8
  store ptr %0, ptr %2, align 8, !tbaa !4
  call void @_ZNSt3__120__throw_length_errorB8ne210000EPKc(ptr noundef @.str) #5
  unreachable
}

; Function Attrs: inlinehint mustprogress noreturn uwtable
define linkonce_odr hidden void @_ZNSt3__120__throw_length_errorB8ne210000EPKc(ptr noundef %0) #1 comdat personality ptr @__gxx_personality_v0 {
  %2 = alloca ptr, align 8
  %3 = alloca ptr, align 8
  %4 = alloca i32, align 4
  store ptr %0, ptr %2, align 8, !tbaa !9
  %5 = call ptr @__cxa_allocate_exception(i64 16) #6
  %6 = load ptr, ptr %2, align 8, !tbaa !9
  invoke void @_ZNSt12length_errorC2B8ne210000EPKc(ptr noundef nonnull align 8 dereferenceable(16) %5, ptr noundef %6)
          to label %7 unwind label %8

7:                                                ; preds = %1
  call void @__cxa_throw(ptr %5, ptr @_ZTISt12length_error, ptr @_ZNSt12length_errorD1Ev) #5
  unreachable

8:                                                ; preds = %1
  %9 = landingpad { ptr, i32 }
          cleanup
  %10 = extractvalue { ptr, i32 } %9, 0
  store ptr %10, ptr %3, align 8
  %11 = extractvalue { ptr, i32 } %9, 1
  store i32 %11, ptr %4, align 4
  call void @__cxa_free_exception(ptr %5) #6
  br label %12

12:                                               ; preds = %8
  %13 = load ptr, ptr %3, align 8
  %14 = load i32, ptr %4, align 4
  %15 = insertvalue { ptr, i32 } poison, ptr %13, 0
  %16 = insertvalue { ptr, i32 } %15, i32 %14, 1
  resume { ptr, i32 } %16
}

; Function Attrs: mustprogress noreturn uwtable
define dso_local void @_ZNKSt3__120__vector_base_commonILb1EE20__throw_out_of_rangeEv(ptr noundef nonnull align 1 dereferenceable(1) %0) #0 align 2 {
  %2 = alloca ptr, align 8
  store ptr %0, ptr %2, align 8, !tbaa !4
  call void @_ZNSt3__120__throw_out_of_rangeB8ne210000EPKc(ptr noundef @.str) #5
  unreachable
}

; Function Attrs: inlinehint mustprogress noreturn uwtable
define linkonce_odr hidden void @_ZNSt3__120__throw_out_of_rangeB8ne210000EPKc(ptr noundef %0) #1 comdat personality ptr @__gxx_personality_v0 {
  %2 = alloca ptr, align 8
  %3 = alloca ptr, align 8
  %4 = alloca i32, align 4
  store ptr %0, ptr %2, align 8, !tbaa !9
  %5 = call ptr @__cxa_allocate_exception(i64 16) #6
  %6 = load ptr, ptr %2, align 8, !tbaa !9
  invoke void @_ZNSt12out_of_rangeC2B8ne210000EPKc(ptr noundef nonnull align 8 dereferenceable(16) %5, ptr noundef %6)
          to label %7 unwind label %8

7:                                                ; preds = %1
  call void @__cxa_throw(ptr %5, ptr @_ZTISt12out_of_range, ptr @_ZNSt12out_of_rangeD1Ev) #5
  unreachable

8:                                                ; preds = %1
  %9 = landingpad { ptr, i32 }
          cleanup
  %10 = extractvalue { ptr, i32 } %9, 0
  store ptr %10, ptr %3, align 8
  %11 = extractvalue { ptr, i32 } %9, 1
  store i32 %11, ptr %4, align 4
  call void @__cxa_free_exception(ptr %5) #6
  br label %12

12:                                               ; preds = %8
  %13 = load ptr, ptr %3, align 8
  %14 = load i32, ptr %4, align 4
  %15 = insertvalue { ptr, i32 } poison, ptr %13, 0
  %16 = insertvalue { ptr, i32 } %15, i32 %14, 1
  resume { ptr, i32 } %16
}

declare ptr @__cxa_allocate_exception(i64)

; Function Attrs: mustprogress uwtable
define linkonce_odr hidden void @_ZNSt12length_errorC2B8ne210000EPKc(ptr noundef nonnull align 8 dereferenceable(16) %0, ptr noundef %1) unnamed_addr #2 comdat align 2 {
  %3 = alloca ptr, align 8
  %4 = alloca ptr, align 8
  store ptr %0, ptr %3, align 8, !tbaa !11
  store ptr %1, ptr %4, align 8, !tbaa !9
  %5 = load ptr, ptr %3, align 8
  %6 = load ptr, ptr %4, align 8, !tbaa !9
  call void @_ZNSt11logic_errorC2EPKc(ptr noundef nonnull align 8 dereferenceable(16) %5, ptr noundef %6)
  store ptr getelementptr inbounds inrange(-16, 24) ({ [5 x ptr] }, ptr @_ZTVSt12length_error, i32 0, i32 0, i32 2), ptr %5, align 8, !tbaa !13
  ret void
}

declare i32 @__gxx_personality_v0(...)

declare void @__cxa_free_exception(ptr)

; Function Attrs: nounwind
declare void @_ZNSt12length_errorD1Ev(ptr noundef nonnull align 8 dereferenceable(16)) unnamed_addr #3

declare void @__cxa_throw(ptr, ptr, ptr)

declare void @_ZNSt11logic_errorC2EPKc(ptr noundef nonnull align 8 dereferenceable(16), ptr noundef) unnamed_addr #4

; Function Attrs: nounwind
declare void @_ZNSt12length_errorD0Ev(ptr noundef nonnull align 8 dereferenceable(16)) unnamed_addr #3

; Function Attrs: nounwind
declare noundef ptr @_ZNKSt11logic_error4whatEv(ptr noundef nonnull align 8 dereferenceable(16)) unnamed_addr #3

; Function Attrs: mustprogress uwtable
define linkonce_odr hidden void @_ZNSt12out_of_rangeC2B8ne210000EPKc(ptr noundef nonnull align 8 dereferenceable(16) %0, ptr noundef %1) unnamed_addr #2 comdat align 2 {
  %3 = alloca ptr, align 8
  %4 = alloca ptr, align 8
  store ptr %0, ptr %3, align 8, !tbaa !15
  store ptr %1, ptr %4, align 8, !tbaa !9
  %5 = load ptr, ptr %3, align 8
  %6 = load ptr, ptr %4, align 8, !tbaa !9
  call void @_ZNSt11logic_errorC2EPKc(ptr noundef nonnull align 8 dereferenceable(16) %5, ptr noundef %6)
  store ptr getelementptr inbounds inrange(-16, 24) ({ [5 x ptr] }, ptr @_ZTVSt12out_of_range, i32 0, i32 0, i32 2), ptr %5, align 8, !tbaa !13
  ret void
}

; Function Attrs: nounwind
declare void @_ZNSt12out_of_rangeD1Ev(ptr noundef nonnull align 8 dereferenceable(16)) unnamed_addr #3

; Function Attrs: nounwind
declare void @_ZNSt12out_of_rangeD0Ev(ptr noundef nonnull align 8 dereferenceable(16)) unnamed_addr #3


!llvm.linker.options = !{}
!llvm.module.flags = !{!0, !1, !2, !3}

!0 = !{i32 1, !"wchar_size", i32 4}
!1 = !{i32 8, !"PIC Level", i32 2}
!2 = !{i32 7, !"PIE Level", i32 2}
!3 = !{i32 7, !"uwtable", i32 2}
!4 = !{!5, !5, i64 0}
!5 = !{!"p1 _ZTSNSt3__120__vector_base_commonILb1EEE", !6, i64 0}
!6 = !{!"any pointer", !7, i64 0}
!7 = !{!"omnipotent char", !8, i64 0}
!8 = !{!"Simple C++ TBAA"}
!9 = !{!10, !10, i64 0}
!10 = !{!"p1 omnipotent char", !6, i64 0}
!11 = !{!12, !12, i64 0}
!12 = !{!"p1 _ZTSSt12length_error", !6, i64 0}
!13 = !{!14, !14, i64 0}
!14 = !{!"vtable pointer", !8, i64 0}
!15 = !{!16, !16, i64 0}
!16 = !{!"p1 _ZTSSt12out_of_range", !6, i64 0}
