; ModuleID = 'bench/libcxx/original/vector.ll'
source_filename = "bench/libcxx/original/vector.ll"
target datalayout = "e-m:e-p270:32:32-p271:32:32-p272:64:64-i64:64-i128:128-f80:128-n8:16:32:64-S128"
target triple = "x86_64-pc-linux-gnu"

$_ZNSt3__120__throw_length_errorB8ne210000EPKc = comdat any

$_ZNSt3__120__throw_out_of_rangeB8ne210000EPKc = comdat any

$_ZNSt12length_errorC2B8ne210000EPKc = comdat any

$_ZNSt12out_of_rangeC2B8ne210000EPKc = comdat any

@.str = private unnamed_addr constant [7 x i8] c"vector\00", align 1
@_ZTISt12length_error = external constant ptr
@_ZTVSt12length_error = external unnamed_addr constant { [5 x ptr] }, align 8
@_ZTISt12out_of_range = external constant ptr
@_ZTVSt12out_of_range = external unnamed_addr constant { [5 x ptr] }, align 8

; Function Attrs: mustprogress noreturn uwtable
define dso_local void @_ZNKSt3__120__vector_base_commonILb1EE20__throw_length_errorEv(ptr noundef nonnull readnone align 1 captures(none) dereferenceable(1) %0) local_unnamed_addr #0 align 2 {
  tail call void @_ZNSt3__120__throw_length_errorB8ne210000EPKc(ptr noundef nonnull @.str) #6
  unreachable
}

; Function Attrs: inlinehint mustprogress noreturn uwtable
define linkonce_odr hidden void @_ZNSt3__120__throw_length_errorB8ne210000EPKc(ptr noundef %0) local_unnamed_addr #1 comdat personality ptr @__gxx_personality_v0 {
  %2 = tail call ptr @__cxa_allocate_exception(i64 16) #7
  invoke void @_ZNSt12length_errorC2B8ne210000EPKc(ptr noundef nonnull align 8 dereferenceable(16) %2, ptr noundef %0)
          to label %3 unwind label %4

3:                                                ; preds = %1
  tail call void @__cxa_throw(ptr nonnull %2, ptr nonnull @_ZTISt12length_error, ptr nonnull @_ZNSt12length_errorD1Ev) #6
  unreachable

4:                                                ; preds = %1
  %5 = landingpad { ptr, i32 }
          cleanup
  tail call void @__cxa_free_exception(ptr nonnull %2) #7
  resume { ptr, i32 } %5
}

; Function Attrs: mustprogress noreturn uwtable
define dso_local void @_ZNKSt3__120__vector_base_commonILb1EE20__throw_out_of_rangeEv(ptr noundef nonnull readnone align 1 captures(none) dereferenceable(1) %0) local_unnamed_addr #0 align 2 {
  tail call void @_ZNSt3__120__throw_out_of_rangeB8ne210000EPKc(ptr noundef nonnull @.str) #6
  unreachable
}

; Function Attrs: inlinehint mustprogress noreturn uwtable
define linkonce_odr hidden void @_ZNSt3__120__throw_out_of_rangeB8ne210000EPKc(ptr noundef %0) local_unnamed_addr #1 comdat personality ptr @__gxx_personality_v0 {
  %2 = tail call ptr @__cxa_allocate_exception(i64 16) #7
  invoke void @_ZNSt12out_of_rangeC2B8ne210000EPKc(ptr noundef nonnull align 8 dereferenceable(16) %2, ptr noundef %0)
          to label %3 unwind label %4

3:                                                ; preds = %1
  tail call void @__cxa_throw(ptr nonnull %2, ptr nonnull @_ZTISt12out_of_range, ptr nonnull @_ZNSt12out_of_rangeD1Ev) #6
  unreachable

4:                                                ; preds = %1
  %5 = landingpad { ptr, i32 }
          cleanup
  tail call void @__cxa_free_exception(ptr nonnull %2) #7
  resume { ptr, i32 } %5
}

declare ptr @__cxa_allocate_exception(i64) local_unnamed_addr

; Function Attrs: mustprogress uwtable
define linkonce_odr hidden void @_ZNSt12length_errorC2B8ne210000EPKc(ptr noundef nonnull align 8 dereferenceable(16) %0, ptr noundef %1) unnamed_addr #2 comdat align 2 {
  tail call void @_ZNSt11logic_errorC2EPKc(ptr noundef nonnull align 8 dereferenceable(16) %0, ptr noundef %1)
  store ptr getelementptr inbounds nuw inrange(-16, 24) (i8, ptr @_ZTVSt12length_error, i64 16), ptr %0, align 8, !tbaa !4
  ret void
}

declare i32 @__gxx_personality_v0(...)

declare void @__cxa_free_exception(ptr) local_unnamed_addr

; Function Attrs: nounwind
declare void @_ZNSt12length_errorD1Ev(ptr noundef nonnull align 8 dereferenceable(16)) unnamed_addr #3

; Function Attrs: cold noreturn
declare void @__cxa_throw(ptr, ptr, ptr) local_unnamed_addr #4

declare void @_ZNSt11logic_errorC2EPKc(ptr noundef nonnull align 8 dereferenceable(16), ptr noundef) unnamed_addr #5

; Function Attrs: mustprogress uwtable
define linkonce_odr hidden void @_ZNSt12out_of_rangeC2B8ne210000EPKc(ptr noundef nonnull align 8 dereferenceable(16) %0, ptr noundef %1) unnamed_addr #2 comdat align 2 {
  tail call void @_ZNSt11logic_errorC2EPKc(ptr noundef nonnull align 8 dereferenceable(16) %0, ptr noundef %1)
  store ptr getelementptr inbounds nuw inrange(-16, 24) (i8, ptr @_ZTVSt12out_of_range, i64 16), ptr %0, align 8, !tbaa !4
  ret void
}

; Function Attrs: nounwind
declare void @_ZNSt12out_of_rangeD1Ev(ptr noundef nonnull align 8 dereferenceable(16)) unnamed_addr #3


!llvm.linker.options = !{}
!llvm.module.flags = !{!0, !1, !2, !3}

!0 = !{i32 1, !"wchar_size", i32 4}
!1 = !{i32 8, !"PIC Level", i32 2}
!2 = !{i32 7, !"PIE Level", i32 2}
!3 = !{i32 7, !"uwtable", i32 2}
!4 = !{!5, !5, i64 0}
!5 = !{!"vtable pointer", !6, i64 0}
!6 = !{!"Simple C++ TBAA"}
